target datalayout = "e-m:e-p270:32:32-p271:32:32-p272:64:64-i64:64-i128:128-f80:128-n8:16:32:64-S128"
target triple = "x86_64-pc-linux-gnu"

%struct.hwloc_infos_s = type { ptr, i32, i32 }
%struct.hwloc_numanode_attr_s = type { i64, i32, ptr }
%struct.hwloc_obj = type { i32, ptr, i32, ptr, i64, ptr, i32, i32, ptr, ptr, ptr, i32, ptr, ptr, i32, ptr, ptr, ptr, i32, i32, ptr, i32, ptr, i32, ptr, ptr, ptr, ptr, ptr, %struct.hwloc_infos_s, ptr, i64 }
%struct.hwloc_memory_page_type_s = type { i64, i64 }

; Function Attrs: nounwind uwtable
define internal void @propagate_total_memory(ptr noundef %0) #0 {
  %2 = alloca ptr, align 8
  %3 = alloca ptr, align 8
  %4 = alloca i32, align 4
  store ptr %0, ptr %2, align 8, !tbaa !37
  call void @llvm.lifetime.start.p0(i64 8, ptr %3) #14
  call void @llvm.lifetime.start.p0(i64 4, ptr %4) #14
  %5 = load ptr, ptr %2, align 8, !tbaa !37
  %6 = getelementptr inbounds nuw %struct.hwloc_obj, ptr %5, i32 0, i32 4
  store i64 0, ptr %6, align 8, !tbaa !121
  %7 = load ptr, ptr %2, align 8, !tbaa !37
  %8 = getelementptr inbounds nuw %struct.hwloc_obj, ptr %7, i32 0, i32 16
  %9 = load ptr, ptr %8, align 8, !tbaa !130
  store ptr %9, ptr %3, align 8, !tbaa !37
  br label %10

10:                                               ; preds = %22, %1
  %11 = load ptr, ptr %3, align 8, !tbaa !37
  %12 = icmp ne ptr %11, null
  br i1 %12, label %13, label %26

13:                                               ; preds = %10
  %14 = load ptr, ptr %3, align 8, !tbaa !37
  call void @propagate_total_memory(ptr noundef %14)
  %15 = load ptr, ptr %3, align 8, !tbaa !37
  %16 = getelementptr inbounds nuw %struct.hwloc_obj, ptr %15, i32 0, i32 4
  %17 = load i64, ptr %16, align 8, !tbaa !121
  %18 = load ptr, ptr %2, align 8, !tbaa !37
  %19 = getelementptr inbounds nuw %struct.hwloc_obj, ptr %18, i32 0, i32 4
  %20 = load i64, ptr %19, align 8, !tbaa !121
  %21 = add i64 %20, %17
  store i64 %21, ptr %19, align 8, !tbaa !121
  br label %22

22:                                               ; preds = %13
  %23 = load ptr, ptr %3, align 8, !tbaa !37
  %24 = getelementptr inbounds nuw %struct.hwloc_obj, ptr %23, i32 0, i32 12
  %25 = load ptr, ptr %24, align 8, !tbaa !82
  store ptr %25, ptr %3, align 8, !tbaa !37
  br label %10, !llvm.loop !227

26:                                               ; preds = %10
  %27 = load ptr, ptr %2, align 8, !tbaa !37
  %28 = getelementptr inbounds nuw %struct.hwloc_obj, ptr %27, i32 0, i32 20
  %29 = load ptr, ptr %28, align 8, !tbaa !132
  store ptr %29, ptr %3, align 8, !tbaa !37
  br label %30

30:                                               ; preds = %42, %26
  %31 = load ptr, ptr %3, align 8, !tbaa !37
  %32 = icmp ne ptr %31, null
  br i1 %32, label %33, label %46

33:                                               ; preds = %30
  %34 = load ptr, ptr %3, align 8, !tbaa !37
  call void @propagate_total_memory(ptr noundef %34)
  %35 = load ptr, ptr %3, align 8, !tbaa !37
  %36 = getelementptr inbounds nuw %struct.hwloc_obj, ptr %35, i32 0, i32 4
  %37 = load i64, ptr %36, align 8, !tbaa !121
  %38 = load ptr, ptr %2, align 8, !tbaa !37
  %39 = getelementptr inbounds nuw %struct.hwloc_obj, ptr %38, i32 0, i32 4
  %40 = load i64, ptr %39, align 8, !tbaa !121
  %41 = add i64 %40, %37
  store i64 %41, ptr %39, align 8, !tbaa !121
  br label %42

42:                                               ; preds = %33
  %43 = load ptr, ptr %3, align 8, !tbaa !37
  %44 = getelementptr inbounds nuw %struct.hwloc_obj, ptr %43, i32 0, i32 12
  %45 = load ptr, ptr %44, align 8, !tbaa !82
  store ptr %45, ptr %3, align 8, !tbaa !37
  br label %30, !llvm.loop !228

46:                                               ; preds = %30
  %47 = load ptr, ptr %2, align 8, !tbaa !37
  %48 = getelementptr inbounds nuw %struct.hwloc_obj, ptr %47, i32 0, i32 0
  %49 = load i32, ptr %48, align 8, !tbaa !46
  %50 = icmp eq i32 %49, 14
  br i1 %50, label %51, label %112

51:                                               ; preds = %46
  %52 = load ptr, ptr %2, align 8, !tbaa !37
  %53 = getelementptr inbounds nuw %struct.hwloc_obj, ptr %52, i32 0, i32 5
  %54 = load ptr, ptr %53, align 8, !tbaa !50
  %55 = getelementptr inbounds nuw %struct.hwloc_numanode_attr_s, ptr %54, i32 0, i32 0
  %56 = load i64, ptr %55, align 8, !tbaa !73
  %57 = load ptr, ptr %2, align 8, !tbaa !37
  %58 = getelementptr inbounds nuw %struct.hwloc_obj, ptr %57, i32 0, i32 4
  %59 = load i64, ptr %58, align 8, !tbaa !121
  %60 = add i64 %59, %56
  store i64 %60, ptr %58, align 8, !tbaa !121
  %61 = load ptr, ptr %2, align 8, !tbaa !37
  %62 = getelementptr inbounds nuw %struct.hwloc_obj, ptr %61, i32 0, i32 5
  %63 = load ptr, ptr %62, align 8, !tbaa !50
  %64 = getelementptr inbounds nuw %struct.hwloc_numanode_attr_s, ptr %63, i32 0, i32 1
  %65 = load i32, ptr %64, align 8, !tbaa !73
  %66 = icmp ne i32 %65, 0
  br i1 %66, label %67, label %111

67:                                               ; preds = %51
  %68 = load ptr, ptr %2, align 8, !tbaa !37
  %69 = getelementptr inbounds nuw %struct.hwloc_obj, ptr %68, i32 0, i32 5
  %70 = load ptr, ptr %69, align 8, !tbaa !50
  %71 = getelementptr inbounds nuw %struct.hwloc_numanode_attr_s, ptr %70, i32 0, i32 2
  %72 = load ptr, ptr %71, align 8, !tbaa !73
  %73 = load ptr, ptr %2, align 8, !tbaa !37
  %74 = getelementptr inbounds nuw %struct.hwloc_obj, ptr %73, i32 0, i32 5
  %75 = load ptr, ptr %74, align 8, !tbaa !50
  %76 = getelementptr inbounds nuw %struct.hwloc_numanode_attr_s, ptr %75, i32 0, i32 1
  %77 = load i32, ptr %76, align 8, !tbaa !73
  %78 = zext i32 %77 to i64
  call void @qsort(ptr noundef %72, i64 noundef %78, i64 noundef 16, ptr noundef @hwloc_memory_page_type_compare)
  %79 = load ptr, ptr %2, align 8, !tbaa !37
  %80 = getelementptr inbounds nuw %struct.hwloc_obj, ptr %79, i32 0, i32 5
  %81 = load ptr, ptr %80, align 8, !tbaa !50
  %82 = getelementptr inbounds nuw %struct.hwloc_numanode_attr_s, ptr %81, i32 0, i32 1
  %83 = load i32, ptr %82, align 8, !tbaa !73
  store i32 %83, ptr %4, align 4, !tbaa !33
  br label %84

84:                                               ; preds = %102, %67
  %85 = load i32, ptr %4, align 4, !tbaa !33
  %86 = icmp uge i32 %85, 1
  br i1 %86, label %87, label %105

87:                                               ; preds = %84
  %88 = load ptr, ptr %2, align 8, !tbaa !37
  %89 = getelementptr inbounds nuw %struct.hwloc_obj, ptr %88, i32 0, i32 5
  %90 = load ptr, ptr %89, align 8, !tbaa !50
  %91 = getelementptr inbounds nuw %struct.hwloc_numanode_attr_s, ptr %90, i32 0, i32 2
  %92 = load ptr, ptr %91, align 8, !tbaa !73
  %93 = load i32, ptr %4, align 4, !tbaa !33
  %94 = sub i32 %93, 1
  %95 = zext i32 %94 to i64
  %96 = getelementptr inbounds nuw %struct.hwloc_memory_page_type_s, ptr %92, i64 %95
  %97 = getelementptr inbounds nuw %struct.hwloc_memory_page_type_s, ptr %96, i32 0, i32 0
  %98 = load i64, ptr %97, align 8, !tbaa !229
  %99 = icmp ne i64 %98, 0
  br i1 %99, label %100, label %101

100:                                              ; preds = %87
  br label %105

101:                                              ; preds = %87
  br label %102

102:                                              ; preds = %101
  %103 = load i32, ptr %4, align 4, !tbaa !33
  %104 = add i32 %103, -1
  store i32 %104, ptr %4, align 4, !tbaa !33
  br label %84, !llvm.loop !231

105:                                              ; preds = %100, %84
  %106 = load i32, ptr %4, align 4, !tbaa !33
  %107 = load ptr, ptr %2, align 8, !tbaa !37
  %108 = getelementptr inbounds nuw %struct.hwloc_obj, ptr %107, i32 0, i32 5
  %109 = load ptr, ptr %108, align 8, !tbaa !50
  %110 = getelementptr inbounds nuw %struct.hwloc_numanode_attr_s, ptr %109, i32 0, i32 1
  store i32 %106, ptr %110, align 8, !tbaa !73
  br label %111

111:                                              ; preds = %105, %51
  br label %112

112:                                              ; preds = %111, %46
  call void @llvm.lifetime.end.p0(i64 4, ptr %4) #14
  call void @llvm.lifetime.end.p0(i64 8, ptr %3) #14
  ret void
}