; Function Attrs: nofree nounwind uwtable
define internal fastcc void @propagate_total_memory(ptr noundef captures(none) initializes((32, 40)) %0) unnamed_addr #2 {
  %2 = getelementptr inbounds nuw i8, ptr %0, i64 32
  store i64 0, ptr %2, align 8, !tbaa !119
  %3 = getelementptr inbounds nuw i8, ptr %0, i64 120
  %.02531 = load ptr, ptr %3, align 8, !tbaa !50
  %.not32 = icmp eq ptr %.02531, null
  br i1 %.not32, label %._crit_edge, label %.lr.ph

.lr.ph:                                           ; preds = %1, %.lr.ph
  %.02533 = phi ptr [ %.025, %.lr.ph ], [ %.02531, %1 ]
  tail call fastcc void @propagate_total_memory(ptr noundef nonnull %.02533)
  %4 = getelementptr inbounds nuw i8, ptr %.02533, i64 32
  %5 = load i64, ptr %4, align 8, !tbaa !119
  %6 = load i64, ptr %2, align 8, !tbaa !119
  %7 = add i64 %6, %5
  store i64 %7, ptr %2, align 8, !tbaa !119
  %8 = getelementptr inbounds nuw i8, ptr %.02533, i64 88
  %.025 = load ptr, ptr %8, align 8, !tbaa !50
  %.not = icmp eq ptr %.025, null
  br i1 %.not, label %._crit_edge, label %.lr.ph, !llvm.loop !219

._crit_edge:                                      ; preds = %.lr.ph, %1
  %9 = phi i64 [ 0, %1 ], [ %7, %.lr.ph ]
  %10 = getelementptr inbounds nuw i8, ptr %0, i64 144
  %.134 = load ptr, ptr %10, align 8, !tbaa !50
  %.not2735 = icmp eq ptr %.134, null
  br i1 %.not2735, label %._crit_edge39, label %.lr.ph38

.lr.ph38:                                         ; preds = %._crit_edge, %.lr.ph38
  %.136 = phi ptr [ %.1, %.lr.ph38 ], [ %.134, %._crit_edge ]
  tail call fastcc void @propagate_total_memory(ptr noundef nonnull %.136)
  %11 = getelementptr inbounds nuw i8, ptr %.136, i64 32
  %12 = load i64, ptr %11, align 8, !tbaa !119
  %13 = load i64, ptr %2, align 8, !tbaa !119
  %14 = add i64 %13, %12
  store i64 %14, ptr %2, align 8, !tbaa !119
  %15 = getelementptr inbounds nuw i8, ptr %.136, i64 88
  %.1 = load ptr, ptr %15, align 8, !tbaa !50
  %.not27 = icmp eq ptr %.1, null
  br i1 %.not27, label %._crit_edge39, label %.lr.ph38, !llvm.loop !220

._crit_edge39:                                    ; preds = %.lr.ph38, %._crit_edge
  %16 = phi i64 [ %9, %._crit_edge ], [ %14, %.lr.ph38 ]
  %17 = load i32, ptr %0, align 8, !tbaa !35
  %18 = icmp eq i32 %17, 14
  br i1 %18, label %19, label %42

19:                                               ; preds = %._crit_edge39
  %20 = getelementptr inbounds nuw i8, ptr %0, i64 40
  %21 = load ptr, ptr %20, align 8, !tbaa !44
  %22 = load i64, ptr %21, align 8, !tbaa !53
  %23 = add i64 %16, %22
  store i64 %23, ptr %2, align 8, !tbaa !119
  %24 = getelementptr inbounds nuw i8, ptr %21, i64 8
  %25 = load i32, ptr %24, align 8, !tbaa !53
  %.not28 = icmp eq i32 %25, 0
  br i1 %.not28, label %42, label %26

26:                                               ; preds = %19
  %27 = getelementptr inbounds nuw i8, ptr %21, i64 16
  %28 = load ptr, ptr %27, align 8, !tbaa !53
  %29 = zext i32 %25 to i64
  tail call void @qsort(ptr noundef %28, i64 noundef %29, i64 noundef 16, ptr noundef nonnull @hwloc_memory_page_type_compare) #34
  %30 = load ptr, ptr %20, align 8, !tbaa !44
  %31 = getelementptr inbounds nuw i8, ptr %30, i64 8
  %32 = load i32, ptr %31, align 8, !tbaa !53
  %33 = getelementptr inbounds nuw i8, ptr %30, i64 16
  %34 = zext i32 %32 to i64
  br label %35

35:                                               ; preds = %36, %26
  %indvars.iv = phi i64 [ %38, %36 ], [ %34, %26 ]
  %.not29 = icmp eq i64 %indvars.iv, 0
  br i1 %.not29, label %.split.loop.exit42, label %36

36:                                               ; preds = %35
  %37 = load ptr, ptr %33, align 8, !tbaa !53
  %38 = add nsw i64 %indvars.iv, -1
  %39 = getelementptr inbounds nuw %struct.hwloc_memory_page_type_s, ptr %37, i64 %38
  %40 = load i64, ptr %39, align 8, !tbaa !221
  %.not30 = icmp eq i64 %40, 0
  br i1 %.not30, label %35, label %.split.loop.exit, !llvm.loop !223

.split.loop.exit:                                 ; preds = %36
  %41 = trunc nuw i64 %indvars.iv to i32
  br label %.split.loop.exit42

.split.loop.exit42:                               ; preds = %35, %.split.loop.exit
  %.0.lcssa = phi i32 [ %41, %.split.loop.exit ], [ 0, %35 ]
  store i32 %.0.lcssa, ptr %31, align 8, !tbaa !53
  br label %42

42:                                               ; preds = %19, %.split.loop.exit42, %._crit_edge39
  ret void
}